; ModuleID = '63/1202.c'
source_filename = "63/1202.c"
target datalayout = "e-m:e-p270:32:32-p271:32:32-p272:64:64-i64:64-f80:128-n8:16:32:64-S128"
target triple = "x86_64-pc-linux-gnu"

@.str = private unnamed_addr constant [6 x i8] c"%d %d\00", align 1
@.str.1 = private unnamed_addr constant [3 x i8] c"%d\00", align 1
@.str.2 = private unnamed_addr constant [4 x i8] c" %d\00", align 1
@.str.3 = private unnamed_addr constant [2 x i8] c"\0A\00", align 1

; Function Attrs: noinline nounwind uwtable
define dso_local i32 @main() #0 {
  %1 = alloca i32, align 4
  %2 = alloca [100 x [100 x i32]], align 16
  %3 = alloca [100 x [100 x i32]], align 16
  %4 = alloca [100 x [100 x i32]], align 16
  %5 = alloca i32, align 4
  %6 = alloca i32, align 4
  %7 = alloca i32, align 4
  %8 = alloca i32, align 4
  %9 = alloca i32, align 4
  %10 = alloca i32, align 4
  %11 = alloca i32, align 4
  %12 = alloca i32, align 4
  %13 = alloca i32, align 4
  store i32 0, i32* %1, align 4
  %14 = call i32 (i8*, ...) @__isoc99_scanf(i8* getelementptr inbounds ([6 x i8], [6 x i8]* @.str, i64 0, i64 0), i32* %5, i32* %6)
  store i32 0, i32* %9, align 4
  br label %15

15:                                               ; preds = %35, %0
  %16 = load i32, i32* %9, align 4
  %17 = load i32, i32* %5, align 4
  %18 = load i32, i32* %6, align 4
  %19 = mul nsw i32 %17, %18
  %20 = icmp slt i32 %16, %19
  br i1 %20, label %21, label %38

21:                                               ; preds = %15
  %22 = load i32, i32* %9, align 4
  %23 = load i32, i32* %6, align 4
  %24 = sdiv i32 %22, %23
  store i32 %24, i32* %10, align 4
  %25 = load i32, i32* %9, align 4
  %26 = load i32, i32* %6, align 4
  %27 = srem i32 %25, %26
  store i32 %27, i32* %11, align 4
  %28 = load i32, i32* %10, align 4
  %29 = sext i32 %28 to i64
  %30 = getelementptr inbounds [100 x [100 x i32]], [100 x [100 x i32]]* %2, i64 0, i64 %29
  %31 = load i32, i32* %11, align 4
  %32 = sext i32 %31 to i64
  %33 = getelementptr inbounds [100 x i32], [100 x i32]* %30, i64 0, i64 %32
  %34 = call i32 (i8*, ...) @__isoc99_scanf(i8* getelementptr inbounds ([3 x i8], [3 x i8]* @.str.1, i64 0, i64 0), i32* %33)
  br label %35

35:                                               ; preds = %21
  %36 = load i32, i32* %9, align 4
  %37 = add nsw i32 %36, 1
  store i32 %37, i32* %9, align 4
  br label %15

38:                                               ; preds = %15
  %39 = call i32 (i8*, ...) @__isoc99_scanf(i8* getelementptr inbounds ([6 x i8], [6 x i8]* @.str, i64 0, i64 0), i32* %7, i32* %8)
  store i32 0, i32* %9, align 4
  br label %40

40:                                               ; preds = %60, %38
  %41 = load i32, i32* %9, align 4
  %42 = load i32, i32* %7, align 4
  %43 = load i32, i32* %8, align 4
  %44 = mul nsw i32 %42, %43
  %45 = icmp slt i32 %41, %44
  br i1 %45, label %46, label %63

46:                                               ; preds = %40
  %47 = load i32, i32* %9, align 4
  %48 = load i32, i32* %8, align 4
  %49 = sdiv i32 %47, %48
  store i32 %49, i32* %10, align 4
  %50 = load i32, i32* %9, align 4
  %51 = load i32, i32* %8, align 4
  %52 = srem i32 %50, %51
  store i32 %52, i32* %11, align 4
  %53 = load i32, i32* %10, align 4
  %54 = sext i32 %53 to i64
  %55 = getelementptr inbounds [100 x [100 x i32]], [100 x [100 x i32]]* %3, i64 0, i64 %54
  %56 = load i32, i32* %11, align 4
  %57 = sext i32 %56 to i64
  %58 = getelementptr inbounds [100 x i32], [100 x i32]* %55, i64 0, i64 %57
  %59 = call i32 (i8*, ...) @__isoc99_scanf(i8* getelementptr inbounds ([3 x i8], [3 x i8]* @.str.1, i64 0, i64 0), i32* %58)
  br label %60

60:                                               ; preds = %46
  %61 = load i32, i32* %9, align 4
  %62 = add nsw i32 %61, 1
  store i32 %62, i32* %9, align 4
  br label %40

63:                                               ; preds = %40
  store i32 0, i32* %10, align 4
  br label %64

64:                                               ; preds = %145, %63
  %65 = load i32, i32* %10, align 4
  %66 = load i32, i32* %5, align 4
  %67 = icmp slt i32 %65, %66
  br i1 %67, label %68, label %148

68:                                               ; preds = %64
  store i32 0, i32* %11, align 4
  br label %69

69:                                               ; preds = %141, %68
  %70 = load i32, i32* %11, align 4
  %71 = load i32, i32* %8, align 4
  %72 = icmp slt i32 %70, %71
  br i1 %72, label %73, label %144

73:                                               ; preds = %69
  %74 = load i32, i32* %10, align 4
  %75 = sext i32 %74 to i64
  %76 = getelementptr inbounds [100 x [100 x i32]], [100 x [100 x i32]]* %4, i64 0, i64 %75
  %77 = load i32, i32* %11, align 4
  %78 = sext i32 %77 to i64
  %79 = getelementptr inbounds [100 x i32], [100 x i32]* %76, i64 0, i64 %78
  store i32 0, i32* %79, align 4
  store i32 0, i32* %12, align 4
  br label %80

80:                                               ; preds = %109, %73
  %81 = load i32, i32* %12, align 4
  %82 = load i32, i32* %6, align 4
  %83 = icmp slt i32 %81, %82
  br i1 %83, label %84, label %112

84:                                               ; preds = %80
  %85 = load i32, i32* %10, align 4
  %86 = sext i32 %85 to i64
  %87 = getelementptr inbounds [100 x [100 x i32]], [100 x [100 x i32]]* %2, i64 0, i64 %86
  %88 = load i32, i32* %12, align 4
  %89 = sext i32 %88 to i64
  %90 = getelementptr inbounds [100 x i32], [100 x i32]* %87, i64 0, i64 %89
  %91 = load i32, i32* %90, align 4
  %92 = load i32, i32* %12, align 4
  %93 = sext i32 %92 to i64
  %94 = getelementptr inbounds [100 x [100 x i32]], [100 x [100 x i32]]* %3, i64 0, i64 %93
  %95 = load i32, i32* %11, align 4
  %96 = sext i32 %95 to i64
  %97 = getelementptr inbounds [100 x i32], [100 x i32]* %94, i64 0, i64 %96
  %98 = load i32, i32* %97, align 4
  %99 = mul nsw i32 %91, %98
  store i32 %99, i32* %13, align 4
  %100 = load i32, i32* %13, align 4
  %101 = load i32, i32* %10, align 4
  %102 = sext i32 %101 to i64
  %103 = getelementptr inbounds [100 x [100 x i32]], [100 x [100 x i32]]* %4, i64 0, i64 %102
  %104 = load i32, i32* %11, align 4
  %105 = sext i32 %104 to i64
  %106 = getelementptr inbounds [100 x i32], [100 x i32]* %103, i64 0, i64 %105
  %107 = load i32, i32* %106, align 4
  %108 = add nsw i32 %107, %100
  store i32 %108, i32* %106, align 4
  br label %109

109:                                              ; preds = %84
  %110 = load i32, i32* %12, align 4
  %111 = add nsw i32 %110, 1
  store i32 %111, i32* %12, align 4
  br label %80

112:                                              ; preds = %80
  %113 = load i32, i32* %11, align 4
  %114 = icmp eq i32 %113, 0
  br i1 %114, label %115, label %124

115:                                              ; preds = %112
  %116 = load i32, i32* %10, align 4
  %117 = sext i32 %116 to i64
  %118 = getelementptr inbounds [100 x [100 x i32]], [100 x [100 x i32]]* %4, i64 0, i64 %117
  %119 = load i32, i32* %11, align 4
  %120 = sext i32 %119 to i64
  %121 = getelementptr inbounds [100 x i32], [100 x i32]* %118, i64 0, i64 %120
  %122 = load i32, i32* %121, align 4
  %123 = call i32 (i8*, ...) @printf(i8* getelementptr inbounds ([3 x i8], [3 x i8]* @.str.1, i64 0, i64 0), i32 %122)
  br label %133

124:                                              ; preds = %112
  %125 = load i32, i32* %10, align 4
  %126 = sext i32 %125 to i64
  %127 = getelementptr inbounds [100 x [100 x i32]], [100 x [100 x i32]]* %4, i64 0, i64 %126
  %128 = load i32, i32* %11, align 4
  %129 = sext i32 %128 to i64
  %130 = getelementptr inbounds [100 x i32], [100 x i32]* %127, i64 0, i64 %129
  %131 = load i32, i32* %130, align 4
  %132 = call i32 (i8*, ...) @printf(i8* getelementptr inbounds ([4 x i8], [4 x i8]* @.str.2, i64 0, i64 0), i32 %131)
  br label %133

133:                                              ; preds = %124, %115
  %134 = load i32, i32* %11, align 4
  %135 = load i32, i32* %8, align 4
  %136 = sub nsw i32 %135, 1
  %137 = icmp eq i32 %134, %136
  br i1 %137, label %138, label %140

138:                                              ; preds = %133
  %139 = call i32 (i8*, ...) @printf(i8* getelementptr inbounds ([2 x i8], [2 x i8]* @.str.3, i64 0, i64 0))
  br label %140

140:                                              ; preds = %138, %133
  br label %141

141:                                              ; preds = %140
  %142 = load i32, i32* %11, align 4
  %143 = add nsw i32 %142, 1
  store i32 %143, i32* %11, align 4
  br label %69

144:                                              ; preds = %69
  br label %145

145:                                              ; preds = %144
  %146 = load i32, i32* %10, align 4
  %147 = add nsw i32 %146, 1
  store i32 %147, i32* %10, align 4
  br label %64

148:                                              ; preds = %64
  %149 = load i32, i32* %1, align 4
  ret i32 %149
}

declare dso_local i32 @__isoc99_scanf(i8*, ...) #1

declare dso_local i32 @printf(i8*, ...) #1


!llvm.module.flags = !{!0}
!llvm.ident = !{!1}

!0 = !{i32 1, !"wchar_size", i32 4}
!1 = !{!"clang version 10.0.0-4ubuntu1 "}
